(lp0
Vimg/alexandru-acea-1085875-unsplash.jpg
p1
aVimg/arif-riyanto-974674-unsplash.jpg
p2
aVimg/artem-sapegin-199614-unsplash.jpg
p3
aVimg/blake-connally-590845-unsplash.jpg
p4
aVimg/carl-heyerdahl-181868-unsplash.jpg
p5
aVimg/emile-perron-190221-unsplash.jpg
p6
aVimg/fabian-grohs-581927-unsplash.jpg
p7
aVimg/fabian-grohs-674717-unsplash.jpg
p8
aVimg/fabian-grohs-773959-unsplash.jpg
p9
aVimg/fatos-bytyqi-535528-unsplash.jpg
p10
aVimg/hitesh-choudhary-562332-unsplash.jpg
p11
aVimg/john-schnobrich-520019-unsplash.jpg
p12
aVimg/kobu-agency-409288-unsplash.jpg
p13
aVimg/markus-spiske-109588-unsplash.jpg
p14
aVimg/markus-spiske-777055-unsplash.jpg
p15
aVimg/nate-grant-374649-unsplash.jpg
p16
aVimg/oskar-yildiz-631351-unsplash.jpg
p17
aVimg/wahid-khene-978156-unsplash.jpg
p18
a.